target datalayout = "e-m:e-p270:32:32-p271:32:32-p272:64:64-i64:64-i128:128-f80:128-n8:16:32:64-S128"
target triple = "x86_64-pc-linux-gnu"

@_ZZ15EnumConfigPathsjPwmbE8ConfPath = internal global [5 x ptr] [ptr @.str.3, ptr @.str.4, ptr @.str.5, ptr @.str.6, ptr @.str.7], align 16
@.str.8 = private unnamed_addr constant [5 x i8] c"HOME\00", align 1

; Function Attrs: mustprogress uwtable
define noundef zeroext i1 @_Z15EnumConfigPathsjPwmb(i32 noundef %0, ptr noundef %1, i64 noundef %2, i1 noundef zeroext %3) #0 {
  %5 = alloca i1, align 1
  %6 = alloca i32, align 4
  %7 = alloca ptr, align 8
  %8 = alloca i64, align 8
  %9 = alloca i8, align 1
  %10 = alloca ptr, align 8
  store i32 %0, ptr %6, align 4
  store ptr %1, ptr %7, align 8
  store i64 %2, ptr %8, align 8
  %11 = zext i1 %3 to i8
  store i8 %11, ptr %9, align 1
  %12 = load i32, ptr %6, align 4
  %13 = icmp eq i32 %12, 0
  br i1 %13, label %14, label %28

14:                                               ; preds = %4
  %15 = call ptr @getenv(ptr noundef @.str.8) #7
  store ptr %15, ptr %10, align 8
  %16 = load ptr, ptr %10, align 8
  %17 = icmp ne ptr %16, null
  br i1 %17, label %18, label %23

18:                                               ; preds = %14
  %19 = load ptr, ptr %10, align 8
  %20 = load ptr, ptr %7, align 8
  %21 = load i64, ptr %8, align 8
  %22 = call noundef zeroext i1 @_Z10CharToWidePKcPwm(ptr noundef %19, ptr noundef %20, i64 noundef %21)
  br label %27

23:                                               ; preds = %14
  %24 = load ptr, ptr %7, align 8
  %25 = load ptr, ptr @_ZZ15EnumConfigPathsjPwmbE8ConfPath, align 16
  %26 = load i64, ptr %8, align 8
  call void @_Z8wcsncpyzPwPKwm(ptr noundef %24, ptr noundef %25, i64 noundef %26)
  br label %27

27:                                               ; preds = %23, %18
  store i1 true, ptr %5, align 1
  br label %42

28:                                               ; preds = %4
  %29 = load i32, ptr %6, align 4
  %30 = add i32 %29, -1
  store i32 %30, ptr %6, align 4
  %31 = load i32, ptr %6, align 4
  %32 = zext i32 %31 to i64
  %33 = icmp uge i64 %32, 5
  br i1 %33, label %34, label %35

34:                                               ; preds = %28
  store i1 false, ptr %5, align 1
  br label %42

35:                                               ; preds = %28
  %36 = load ptr, ptr %7, align 8
  %37 = load i32, ptr %6, align 4
  %38 = zext i32 %37 to i64
  %39 = getelementptr inbounds [5 x ptr], ptr @_ZZ15EnumConfigPathsjPwmbE8ConfPath, i64 0, i64 %38
  %40 = load ptr, ptr %39, align 8
  %41 = load i64, ptr %8, align 8
  call void @_Z8wcsncpyzPwPKwm(ptr noundef %36, ptr noundef %40, i64 noundef %41)
  store i1 true, ptr %5, align 1
  br label %42

42:                                               ; preds = %35, %34, %27
  %43 = load i1, ptr %5, align 1
  ret i1 %43
}