; Function Attrs: mustprogress uwtable
define noundef zeroext i1 @_Z15EnumConfigPathsjPwmb(i32 noundef %0, ptr noundef %1, i64 noundef %2, i1 noundef zeroext %3) local_unnamed_addr #3 {
  %5 = icmp eq i32 %0, 0
  br i1 %5, label %6, label %11

6:                                                ; preds = %4
  %7 = tail call ptr @getenv(ptr noundef nonnull @.str.8) #19
  %.not = icmp eq ptr %7, null
  br i1 %.not, label %10, label %8

8:                                                ; preds = %6
  %9 = tail call noundef zeroext i1 @_Z10CharToWidePKcPwm(ptr noundef nonnull %7, ptr noundef %1, i64 noundef %2)
  br label %18

10:                                               ; preds = %6
  tail call void @_Z8wcsncpyzPwPKwm(ptr noundef %1, ptr noundef nonnull @.str.3, i64 noundef %2)
  br label %18

11:                                               ; preds = %4
  %12 = add i32 %0, -1
  %13 = icmp ugt i32 %12, 4
  br i1 %13, label %18, label %14

14:                                               ; preds = %11
  %15 = zext nneg i32 %12 to i64
  %16 = getelementptr inbounds nuw [5 x ptr], ptr @_ZZ15EnumConfigPathsjPwmbE8ConfPath, i64 0, i64 %15
  %17 = load ptr, ptr %16, align 8
  tail call void @_Z8wcsncpyzPwPKwm(ptr noundef %1, ptr noundef %17, i64 noundef %2)
  br label %18

18:                                               ; preds = %11, %8, %10, %14
  %.0 = phi i1 [ true, %14 ], [ true, %10 ], [ true, %8 ], [ false, %11 ]
  ret i1 %.0
}